target datalayout = "e-m:e-p270:32:32-p271:32:32-p272:64:64-i64:64-i128:128-f80:128-n8:16:32:64-S128"
target triple = "x86_64-pc-linux-gnu"

%struct.PJconsts = type { ptr, ptr, ptr, ptr, ptr, ptr, ptr, ptr, ptr, ptr, ptr, ptr, i32, ptr, ptr, ptr, ptr, ptr, ptr, ptr, ptr, double, double, double, double, double, double, double, double, double, double, double, double, double, double, double, double, double, double, double, double, double, double, i32, i32, i32, i32, i32, i32, i32, i32, i32, i32, i32, ptr, ptr, ptr, ptr, ptr, ptr, double, double, double, double, double, double, double, double, double, double, double, i32, [7 x double], i32, ptr, ptr, double, double, i32, [4 x i8], %"class.std::shared_ptr", i8, double, i8, %"class.std::__cxx11::basic_string", %"class.std::__cxx11::basic_string", %"class.std::__cxx11::basic_string", i8, %"class.std::vector", i32, %"class.std::vector.3", i32, i8, i8, i8, ptr }
%"class.std::shared_ptr" = type { %"class.std::__shared_ptr" }
%"class.std::__shared_ptr" = type { ptr, %"class.std::__shared_count" }
%"class.std::__shared_count" = type { ptr }
%"class.std::__cxx11::basic_string" = type { %"struct.std::__cxx11::basic_string<char>::_Alloc_hider", i64, %union.anon }
%"struct.std::__cxx11::basic_string<char>::_Alloc_hider" = type { ptr }
%union.anon = type { i64, [8 x i8] }
%"class.std::vector" = type { %"struct.std::_Vector_base" }
%"struct.std::_Vector_base" = type { %"struct.std::_Vector_base<osgeo::proj::operation::GridDescription, std::allocator<osgeo::proj::operation::GridDescription>>::_Vector_impl" }
%"struct.std::_Vector_base<osgeo::proj::operation::GridDescription, std::allocator<osgeo::proj::operation::GridDescription>>::_Vector_impl" = type { %"struct.std::_Vector_base<osgeo::proj::operation::GridDescription, std::allocator<osgeo::proj::operation::GridDescription>>::_Vector_impl_data" }
%"struct.std::_Vector_base<osgeo::proj::operation::GridDescription, std::allocator<osgeo::proj::operation::GridDescription>>::_Vector_impl_data" = type { ptr, ptr, ptr }
%"class.std::vector.3" = type { %"struct.std::_Vector_base.4" }
%"struct.std::_Vector_base.4" = type { %"struct.std::_Vector_base<PJCoordOperation, std::allocator<PJCoordOperation>>::_Vector_impl" }
%"struct.std::_Vector_base<PJCoordOperation, std::allocator<PJCoordOperation>>::_Vector_impl" = type { %"struct.std::_Vector_base<PJCoordOperation, std::allocator<PJCoordOperation>>::_Vector_impl_data" }
%"struct.std::_Vector_base<PJCoordOperation, std::allocator<PJCoordOperation>>::_Vector_impl_data" = type { ptr, ptr, ptr }
%"struct.(anonymous namespace)::pj_opaque_molodensky" = type { double, double, double, double, double, i32 }
%struct.PJ_LPZ = type { double, double, double }

; Function Attrs: mustprogress nounwind uwtable
define internal noundef double @_ZL2RNddd(double noundef %0, double noundef %1, double noundef %2) #6 {
  %4 = alloca double, align 8
  %5 = alloca double, align 8
  %6 = alloca double, align 8
  %7 = alloca double, align 8
  %8 = alloca double, align 8
  %9 = alloca i32, align 4
  store double %0, ptr %5, align 8, !tbaa !63
  store double %1, ptr %6, align 8, !tbaa !63
  store double %2, ptr %7, align 8, !tbaa !63
  call void @llvm.lifetime.start.p0(i64 8, ptr %8) #9
  %10 = load double, ptr %7, align 8, !tbaa !63
  %11 = call double @sin(double noundef %10) #9, !tbaa !69
  store double %11, ptr %8, align 8, !tbaa !63
  %12 = load double, ptr %6, align 8, !tbaa !63
  %13 = fcmp oeq double %12, 0.000000e+00
  br i1 %13, label %14, label %16

14:                                               ; preds = %3
  %15 = load double, ptr %5, align 8, !tbaa !63
  store double %15, ptr %4, align 8
  store i32 1, ptr %9, align 4
  br label %26

16:                                               ; preds = %3
  %17 = load double, ptr %5, align 8, !tbaa !63
  %18 = load double, ptr %6, align 8, !tbaa !63
  %19 = load double, ptr %8, align 8, !tbaa !63
  %20 = fmul double %18, %19
  %21 = load double, ptr %8, align 8, !tbaa !63
  %22 = fneg double %20
  %23 = call double @llvm.fmuladd.f64(double %22, double %21, double 1.000000e+00)
  %24 = call double @sqrt(double noundef %23) #9, !tbaa !69
  %25 = fdiv double %17, %24
  store double %25, ptr %4, align 8
  store i32 1, ptr %9, align 4
  br label %26

26:                                               ; preds = %16, %14
  call void @llvm.lifetime.end.p0(i64 8, ptr %8) #9
  %27 = load double, ptr %4, align 8
  ret double %27
}

; Function Attrs: mustprogress nounwind uwtable
define internal noundef double @_ZL2RMddd(double noundef %0, double noundef %1, double noundef %2) #6 {
  %4 = alloca double, align 8
  %5 = alloca double, align 8
  %6 = alloca double, align 8
  %7 = alloca double, align 8
  %8 = alloca double, align 8
  %9 = alloca i32, align 4
  store double %0, ptr %5, align 8, !tbaa !63
  store double %1, ptr %6, align 8, !tbaa !63
  store double %2, ptr %7, align 8, !tbaa !63
  call void @llvm.lifetime.start.p0(i64 8, ptr %8) #9
  %10 = load double, ptr %7, align 8, !tbaa !63
  %11 = call double @sin(double noundef %10) #9, !tbaa !69
  store double %11, ptr %8, align 8, !tbaa !63
  %12 = load double, ptr %6, align 8, !tbaa !63
  %13 = fcmp oeq double %12, 0.000000e+00
  br i1 %13, label %14, label %16

14:                                               ; preds = %3
  %15 = load double, ptr %5, align 8, !tbaa !63
  store double %15, ptr %4, align 8
  store i32 1, ptr %9, align 4
  br label %47

16:                                               ; preds = %3
  %17 = load double, ptr %7, align 8, !tbaa !63
  %18 = fcmp oeq double %17, 0.000000e+00
  br i1 %18, label %19, label %24

19:                                               ; preds = %16
  %20 = load double, ptr %5, align 8, !tbaa !63
  %21 = load double, ptr %6, align 8, !tbaa !63
  %22 = fsub double 1.000000e+00, %21
  %23 = fmul double %20, %22
  store double %23, ptr %4, align 8
  store i32 1, ptr %9, align 4
  br label %47

24:                                               ; preds = %16
  %25 = load double, ptr %7, align 8, !tbaa !63
  %26 = call double @llvm.fabs.f64(double %25)
  %27 = fcmp oeq double %26, 0x3FF921FB54442D18
  br i1 %27, label %28, label %34

28:                                               ; preds = %24
  %29 = load double, ptr %5, align 8, !tbaa !63
  %30 = load double, ptr %6, align 8, !tbaa !63
  %31 = fsub double 1.000000e+00, %30
  %32 = call double @sqrt(double noundef %31) #9, !tbaa !69
  %33 = fdiv double %29, %32
  store double %33, ptr %4, align 8
  store i32 1, ptr %9, align 4
  br label %47

34:                                               ; preds = %24
  %35 = load double, ptr %5, align 8, !tbaa !63
  %36 = load double, ptr %6, align 8, !tbaa !63
  %37 = fsub double 1.000000e+00, %36
  %38 = fmul double %35, %37
  %39 = load double, ptr %6, align 8, !tbaa !63
  %40 = load double, ptr %8, align 8, !tbaa !63
  %41 = fmul double %39, %40
  %42 = load double, ptr %8, align 8, !tbaa !63
  %43 = fneg double %41
  %44 = call double @llvm.fmuladd.f64(double %43, double %42, double 1.000000e+00)
  %45 = call double @pow(double noundef %44, double noundef 1.500000e+00) #9, !tbaa !69
  %46 = fdiv double %38, %45
  store double %46, ptr %4, align 8
  store i32 1, ptr %9, align 4
  br label %47

47:                                               ; preds = %34, %28, %19, %14
  call void @llvm.lifetime.end.p0(i64 8, ptr %8) #9
  %48 = load double, ptr %4, align 8
  ret double %48
}

; Function Attrs: mustprogress nounwind uwtable
define internal void @_ZL20calc_standard_params6PJ_LPZP8PJconsts(ptr dead_on_unwind noalias writable sret(%struct.PJ_LPZ) align 8 %0, ptr noundef byval(%struct.PJ_LPZ) align 8 %1, ptr noundef %2) #6 {
  %4 = alloca ptr, align 8
  %5 = alloca ptr, align 8
  %6 = alloca double, align 8
  %7 = alloca double, align 8
  %8 = alloca double, align 8
  %9 = alloca double, align 8
  %10 = alloca double, align 8
  %11 = alloca double, align 8
  %12 = alloca double, align 8
  %13 = alloca double, align 8
  %14 = alloca double, align 8
  %15 = alloca double, align 8
  %16 = alloca double, align 8
  %17 = alloca double, align 8
  %18 = alloca double, align 8
  %19 = alloca double, align 8
  %20 = alloca double, align 8
  %21 = alloca double, align 8
  %22 = alloca double, align 8
  %23 = alloca i32, align 4
  %24 = alloca double, align 8
  store ptr %2, ptr %4, align 8, !tbaa !3
  call void @llvm.lifetime.start.p0(i64 8, ptr %5) #9
  %25 = load ptr, ptr %4, align 8, !tbaa !3
  %26 = getelementptr inbounds nuw %struct.PJconsts, ptr %25, i32 0, i32 11
  %27 = load ptr, ptr %26, align 8, !tbaa !43
  store ptr %27, ptr %5, align 8, !tbaa !41
  call void @llvm.lifetime.start.p0(i64 8, ptr %6) #9
  call void @llvm.lifetime.start.p0(i64 8, ptr %7) #9
  call void @llvm.lifetime.start.p0(i64 8, ptr %8) #9
  call void @llvm.lifetime.start.p0(i64 8, ptr %9) #9
  %28 = getelementptr inbounds nuw %struct.PJ_LPZ, ptr %1, i32 0, i32 0
  %29 = load double, ptr %28, align 8, !tbaa !64
  %30 = call double @sin(double noundef %29) #9, !tbaa !69
  store double %30, ptr %9, align 8, !tbaa !63
  call void @llvm.lifetime.start.p0(i64 8, ptr %10) #9
  %31 = getelementptr inbounds nuw %struct.PJ_LPZ, ptr %1, i32 0, i32 0
  %32 = load double, ptr %31, align 8, !tbaa !64
  %33 = call double @cos(double noundef %32) #9, !tbaa !69
  store double %33, ptr %10, align 8, !tbaa !63
  call void @llvm.lifetime.start.p0(i64 8, ptr %11) #9
  %34 = getelementptr inbounds nuw %struct.PJ_LPZ, ptr %1, i32 0, i32 1
  %35 = load double, ptr %34, align 8, !tbaa !66
  %36 = call double @sin(double noundef %35) #9, !tbaa !69
  store double %36, ptr %11, align 8, !tbaa !63
  call void @llvm.lifetime.start.p0(i64 8, ptr %12) #9
  %37 = getelementptr inbounds nuw %struct.PJ_LPZ, ptr %1, i32 0, i32 1
  %38 = load double, ptr %37, align 8, !tbaa !66
  %39 = call double @cos(double noundef %38) #9, !tbaa !69
  store double %39, ptr %12, align 8, !tbaa !63
  call void @llvm.lifetime.start.p0(i64 8, ptr %13) #9
  %40 = load ptr, ptr %4, align 8, !tbaa !3
  %41 = getelementptr inbounds nuw %struct.PJconsts, ptr %40, i32 0, i32 34
  %42 = load double, ptr %41, align 8, !tbaa !71
  store double %42, ptr %13, align 8, !tbaa !63
  call void @llvm.lifetime.start.p0(i64 8, ptr %14) #9
  %43 = load ptr, ptr %4, align 8, !tbaa !3
  %44 = getelementptr inbounds nuw %struct.PJconsts, ptr %43, i32 0, i32 21
  %45 = load double, ptr %44, align 8, !tbaa !70
  store double %45, ptr %14, align 8, !tbaa !63
  call void @llvm.lifetime.start.p0(i64 8, ptr %15) #9
  %46 = load ptr, ptr %5, align 8, !tbaa !41
  %47 = getelementptr inbounds nuw %"struct.(anonymous namespace)::pj_opaque_molodensky", ptr %46, i32 0, i32 0
  %48 = load double, ptr %47, align 8, !tbaa !53
  store double %48, ptr %15, align 8, !tbaa !63
  call void @llvm.lifetime.start.p0(i64 8, ptr %16) #9
  %49 = load ptr, ptr %5, align 8, !tbaa !41
  %50 = getelementptr inbounds nuw %"struct.(anonymous namespace)::pj_opaque_molodensky", ptr %49, i32 0, i32 1
  %51 = load double, ptr %50, align 8, !tbaa !55
  store double %51, ptr %16, align 8, !tbaa !63
  call void @llvm.lifetime.start.p0(i64 8, ptr %17) #9
  %52 = load ptr, ptr %5, align 8, !tbaa !41
  %53 = getelementptr inbounds nuw %"struct.(anonymous namespace)::pj_opaque_molodensky", ptr %52, i32 0, i32 2
  %54 = load double, ptr %53, align 8, !tbaa !56
  store double %54, ptr %17, align 8, !tbaa !63
  call void @llvm.lifetime.start.p0(i64 8, ptr %18) #9
  %55 = load ptr, ptr %5, align 8, !tbaa !41
  %56 = getelementptr inbounds nuw %"struct.(anonymous namespace)::pj_opaque_molodensky", ptr %55, i32 0, i32 3
  %57 = load double, ptr %56, align 8, !tbaa !57
  store double %57, ptr %18, align 8, !tbaa !63
  call void @llvm.lifetime.start.p0(i64 8, ptr %19) #9
  %58 = load ptr, ptr %5, align 8, !tbaa !41
  %59 = getelementptr inbounds nuw %"struct.(anonymous namespace)::pj_opaque_molodensky", ptr %58, i32 0, i32 4
  %60 = load double, ptr %59, align 8, !tbaa !58
  store double %60, ptr %19, align 8, !tbaa !63
  call void @llvm.lifetime.start.p0(i64 8, ptr %20) #9
  %61 = load double, ptr %14, align 8, !tbaa !63
  %62 = load ptr, ptr %4, align 8, !tbaa !3
  %63 = getelementptr inbounds nuw %struct.PJconsts, ptr %62, i32 0, i32 27
  %64 = load double, ptr %63, align 8, !tbaa !72
  %65 = getelementptr inbounds nuw %struct.PJ_LPZ, ptr %1, i32 0, i32 1
  %66 = load double, ptr %65, align 8, !tbaa !66
  %67 = call noundef double @_ZL2RMddd(double noundef %61, double noundef %64, double noundef %66)
  store double %67, ptr %20, align 8, !tbaa !63
  call void @llvm.lifetime.start.p0(i64 8, ptr %21) #9
  %68 = load double, ptr %14, align 8, !tbaa !63
  %69 = load ptr, ptr %4, align 8, !tbaa !3
  %70 = getelementptr inbounds nuw %struct.PJconsts, ptr %69, i32 0, i32 27
  %71 = load double, ptr %70, align 8, !tbaa !72
  %72 = getelementptr inbounds nuw %struct.PJ_LPZ, ptr %1, i32 0, i32 1
  %73 = load double, ptr %72, align 8, !tbaa !66
  %74 = call noundef double @_ZL2RNddd(double noundef %68, double noundef %71, double noundef %73)
  store double %74, ptr %21, align 8, !tbaa !63
  %75 = load double, ptr %15, align 8, !tbaa !63
  %76 = fneg double %75
  %77 = load double, ptr %11, align 8, !tbaa !63
  %78 = fmul double %76, %77
  %79 = load double, ptr %10, align 8, !tbaa !63
  %80 = load double, ptr %16, align 8, !tbaa !63
  %81 = load double, ptr %11, align 8, !tbaa !63
  %82 = fmul double %80, %81
  %83 = load double, ptr %9, align 8, !tbaa !63
  %84 = fmul double %82, %83
  %85 = fneg double %84
  %86 = call double @llvm.fmuladd.f64(double %78, double %79, double %85)
  %87 = load double, ptr %17, align 8, !tbaa !63
  %88 = load double, ptr %12, align 8, !tbaa !63
  %89 = call double @llvm.fmuladd.f64(double %87, double %88, double %86)
  %90 = load double, ptr %21, align 8, !tbaa !63
  %91 = load ptr, ptr %4, align 8, !tbaa !3
  %92 = getelementptr inbounds nuw %struct.PJconsts, ptr %91, i32 0, i32 27
  %93 = load double, ptr %92, align 8, !tbaa !72
  %94 = fmul double %90, %93
  %95 = load double, ptr %11, align 8, !tbaa !63
  %96 = fmul double %94, %95
  %97 = load double, ptr %12, align 8, !tbaa !63
  %98 = fmul double %96, %97
  %99 = load double, ptr %18, align 8, !tbaa !63
  %100 = fmul double %98, %99
  %101 = load double, ptr %14, align 8, !tbaa !63
  %102 = fdiv double %100, %101
  %103 = fadd double %89, %102
  %104 = load double, ptr %11, align 8, !tbaa !63
  %105 = load double, ptr %12, align 8, !tbaa !63
  %106 = fmul double %104, %105
  %107 = load double, ptr %20, align 8, !tbaa !63
  %108 = load double, ptr %13, align 8, !tbaa !63
  %109 = fsub double 1.000000e+00, %108
  %110 = fdiv double %107, %109
  %111 = load double, ptr %21, align 8, !tbaa !63
  %112 = load double, ptr %13, align 8, !tbaa !63
  %113 = fsub double 1.000000e+00, %112
  %114 = call double @llvm.fmuladd.f64(double %111, double %113, double %110)
  %115 = fmul double %106, %114
  %116 = load double, ptr %19, align 8, !tbaa !63
  %117 = call double @llvm.fmuladd.f64(double %115, double %116, double %103)
  store double %117, ptr %6, align 8, !tbaa !63
  call void @llvm.lifetime.start.p0(i64 8, ptr %22) #9
  %118 = load double, ptr %20, align 8, !tbaa !63
  %119 = getelementptr inbounds nuw %struct.PJ_LPZ, ptr %1, i32 0, i32 2
  %120 = load double, ptr %119, align 8, !tbaa !67
  %121 = fadd double %118, %120
  store double %121, ptr %22, align 8, !tbaa !63
  %122 = load double, ptr %22, align 8, !tbaa !63
  %123 = fcmp oeq double %122, 0.000000e+00
  br i1 %123, label %124, label %126

124:                                              ; preds = %3
  %125 = getelementptr inbounds nuw %struct.PJ_LPZ, ptr %1, i32 0, i32 0
  store double 0x7FF0000000000000, ptr %125, align 8, !tbaa !64
  call void @llvm.memcpy.p0.p0.i64(ptr align 8 %0, ptr align 8 %1, i64 24, i1 false), !tbaa.struct !62
  store i32 1, ptr %23, align 4
  br label %186

126:                                              ; preds = %3
  %127 = load double, ptr %22, align 8, !tbaa !63
  %128 = load double, ptr %6, align 8, !tbaa !63
  %129 = fdiv double %128, %127
  store double %129, ptr %6, align 8, !tbaa !63
  call void @llvm.lifetime.start.p0(i64 8, ptr %24) #9
  %130 = load double, ptr %21, align 8, !tbaa !63
  %131 = getelementptr inbounds nuw %struct.PJ_LPZ, ptr %1, i32 0, i32 2
  %132 = load double, ptr %131, align 8, !tbaa !67
  %133 = fadd double %130, %132
  %134 = load double, ptr %12, align 8, !tbaa !63
  %135 = fmul double %133, %134
  store double %135, ptr %24, align 8, !tbaa !63
  %136 = load double, ptr %24, align 8, !tbaa !63
  %137 = fcmp oeq double %136, 0.000000e+00
  br i1 %137, label %138, label %140

138:                                              ; preds = %126
  %139 = getelementptr inbounds nuw %struct.PJ_LPZ, ptr %1, i32 0, i32 0
  store double 0x7FF0000000000000, ptr %139, align 8, !tbaa !64
  call void @llvm.memcpy.p0.p0.i64(ptr align 8 %0, ptr align 8 %1, i64 24, i1 false), !tbaa.struct !62
  store i32 1, ptr %23, align 4
  br label %185

140:                                              ; preds = %126
  %141 = load double, ptr %15, align 8, !tbaa !63
  %142 = fneg double %141
  %143 = load double, ptr %9, align 8, !tbaa !63
  %144 = load double, ptr %16, align 8, !tbaa !63
  %145 = load double, ptr %10, align 8, !tbaa !63
  %146 = fmul double %144, %145
  %147 = call double @llvm.fmuladd.f64(double %142, double %143, double %146)
  %148 = load double, ptr %24, align 8, !tbaa !63
  %149 = fdiv double %147, %148
  store double %149, ptr %7, align 8, !tbaa !63
  %150 = load double, ptr %15, align 8, !tbaa !63
  %151 = load double, ptr %12, align 8, !tbaa !63
  %152 = fmul double %150, %151
  %153 = load double, ptr %10, align 8, !tbaa !63
  %154 = load double, ptr %16, align 8, !tbaa !63
  %155 = load double, ptr %12, align 8, !tbaa !63
  %156 = fmul double %154, %155
  %157 = load double, ptr %9, align 8, !tbaa !63
  %158 = fmul double %156, %157
  %159 = call double @llvm.fmuladd.f64(double %152, double %153, double %158)
  %160 = load double, ptr %17, align 8, !tbaa !63
  %161 = load double, ptr %11, align 8, !tbaa !63
  %162 = call double @llvm.fmuladd.f64(double %160, double %161, double %159)
  %163 = load double, ptr %14, align 8, !tbaa !63
  %164 = load double, ptr %21, align 8, !tbaa !63
  %165 = fdiv double %163, %164
  %166 = load double, ptr %18, align 8, !tbaa !63
  %167 = fneg double %165
  %168 = call double @llvm.fmuladd.f64(double %167, double %166, double %162)
  %169 = load double, ptr %21, align 8, !tbaa !63
  %170 = load double, ptr %13, align 8, !tbaa !63
  %171 = fsub double 1.000000e+00, %170
  %172 = fmul double %169, %171
  %173 = load double, ptr %11, align 8, !tbaa !63
  %174 = fmul double %172, %173
  %175 = load double, ptr %11, align 8, !tbaa !63
  %176 = fmul double %174, %175
  %177 = load double, ptr %19, align 8, !tbaa !63
  %178 = call double @llvm.fmuladd.f64(double %176, double %177, double %168)
  store double %178, ptr %8, align 8, !tbaa !63
  %179 = load double, ptr %6, align 8, !tbaa !63
  %180 = getelementptr inbounds nuw %struct.PJ_LPZ, ptr %1, i32 0, i32 1
  store double %179, ptr %180, align 8, !tbaa !66
  %181 = load double, ptr %7, align 8, !tbaa !63
  %182 = getelementptr inbounds nuw %struct.PJ_LPZ, ptr %1, i32 0, i32 0
  store double %181, ptr %182, align 8, !tbaa !64
  %183 = load double, ptr %8, align 8, !tbaa !63
  %184 = getelementptr inbounds nuw %struct.PJ_LPZ, ptr %1, i32 0, i32 2
  store double %183, ptr %184, align 8, !tbaa !67
  call void @llvm.memcpy.p0.p0.i64(ptr align 8 %0, ptr align 8 %1, i64 24, i1 false), !tbaa.struct !62
  store i32 1, ptr %23, align 4
  br label %185

185:                                              ; preds = %140, %138
  call void @llvm.lifetime.end.p0(i64 8, ptr %24) #9
  br label %186

186:                                              ; preds = %185, %124
  call void @llvm.lifetime.end.p0(i64 8, ptr %22) #9
  call void @llvm.lifetime.end.p0(i64 8, ptr %21) #9
  call void @llvm.lifetime.end.p0(i64 8, ptr %20) #9
  call void @llvm.lifetime.end.p0(i64 8, ptr %19) #9
  call void @llvm.lifetime.end.p0(i64 8, ptr %18) #9
  call void @llvm.lifetime.end.p0(i64 8, ptr %17) #9
  call void @llvm.lifetime.end.p0(i64 8, ptr %16) #9
  call void @llvm.lifetime.end.p0(i64 8, ptr %15) #9
  call void @llvm.lifetime.end.p0(i64 8, ptr %14) #9
  call void @llvm.lifetime.end.p0(i64 8, ptr %13) #9
  call void @llvm.lifetime.end.p0(i64 8, ptr %12) #9
  call void @llvm.lifetime.end.p0(i64 8, ptr %11) #9
  call void @llvm.lifetime.end.p0(i64 8, ptr %10) #9
  call void @llvm.lifetime.end.p0(i64 8, ptr %9) #9
  call void @llvm.lifetime.end.p0(i64 8, ptr %8) #9
  call void @llvm.lifetime.end.p0(i64 8, ptr %7) #9
  call void @llvm.lifetime.end.p0(i64 8, ptr %6) #9
  call void @llvm.lifetime.end.p0(i64 8, ptr %5) #9
  ret void
}