; Function Attrs: mustprogress nofree nounwind willreturn memory(readwrite, inaccessiblemem: write) uwtable
define internal fastcc void @_ZL20calc_standard_params6PJ_LPZP8PJconsts(ptr dead_on_unwind noalias nonnull writable writeonly align 8 captures(none) initializes((0, 24)) %0, ptr noundef byval(%struct.PJ_LPZ) align 8 captures(none) %1, ptr noundef readonly captures(none) %2) unnamed_addr #5 {
  %4 = getelementptr inbounds nuw i8, ptr %2, i64 88
  %5 = load ptr, ptr %4, align 8, !tbaa !40
  %6 = load double, ptr %1, align 8, !tbaa !60
  %7 = tail call double @sin(double noundef %6) #9, !tbaa !74
  %8 = tail call double @cos(double noundef %6) #9, !tbaa !74
  %9 = getelementptr inbounds nuw i8, ptr %1, i64 8
  %10 = load double, ptr %9, align 8, !tbaa !62
  %11 = tail call double @sin(double noundef %10) #9, !tbaa !74
  %12 = tail call double @cos(double noundef %10) #9, !tbaa !74
  %13 = getelementptr inbounds nuw i8, ptr %2, i64 272
  %14 = load double, ptr %13, align 8, !tbaa !76
  %15 = getelementptr inbounds nuw i8, ptr %2, i64 168
  %16 = load double, ptr %15, align 8, !tbaa !75
  %17 = load double, ptr %5, align 8, !tbaa !49
  %18 = getelementptr inbounds nuw i8, ptr %5, i64 8
  %19 = load double, ptr %18, align 8, !tbaa !51
  %20 = getelementptr inbounds nuw i8, ptr %5, i64 16
  %21 = load double, ptr %20, align 8, !tbaa !52
  %22 = getelementptr inbounds nuw i8, ptr %5, i64 24
  %23 = load double, ptr %22, align 8, !tbaa !53
  %24 = getelementptr inbounds nuw i8, ptr %5, i64 32
  %25 = load double, ptr %24, align 8, !tbaa !54
  %26 = getelementptr inbounds nuw i8, ptr %2, i64 216
  %27 = load double, ptr %26, align 8, !tbaa !77
  %28 = tail call double @sin(double noundef %10) #9, !tbaa !74
  %29 = fcmp oeq double %27, 0.000000e+00
  br i1 %29, label %_ZL2RMddd.exit, label %30

30:                                               ; preds = %3
  %31 = fcmp oeq double %10, 0.000000e+00
  br i1 %31, label %32, label %35

32:                                               ; preds = %30
  %33 = fsub double 1.000000e+00, %27
  %34 = fmul double %16, %33
  br label %52

35:                                               ; preds = %30
  %36 = tail call double @llvm.fabs.f64(double %10)
  %37 = fcmp oeq double %36, 0x3FF921FB54442D18
  %38 = fsub double 1.000000e+00, %27
  br i1 %37, label %39, label %42

39:                                               ; preds = %35
  %40 = tail call double @sqrt(double noundef %38) #9, !tbaa !74
  %41 = fdiv double %16, %40
  br label %52

42:                                               ; preds = %35
  %43 = fmul double %16, %38
  %44 = fneg double %28
  %45 = fmul double %27, %44
  %46 = tail call double @llvm.fmuladd.f64(double %45, double %28, double 1.000000e+00)
  %47 = tail call double @pow(double noundef %46, double noundef 1.500000e+00) #9, !tbaa !74
  %48 = fdiv double %43, %47
  br label %52

_ZL2RMddd.exit:                                   ; preds = %3
  %49 = tail call double @llvm.fabs.f64(double %10)
  %50 = fcmp oeq double %49, 0x7FF0000000000000
  br i1 %50, label %cdce.call, label %_ZL2RNddd.exit, !prof !78

cdce.call:                                        ; preds = %_ZL2RMddd.exit
  %51 = tail call double @sin(double noundef %10) #9, !tbaa !74
  br label %_ZL2RNddd.exit

52:                                               ; preds = %32, %39, %42
  %.0.i.ph = phi double [ %48, %42 ], [ %41, %39 ], [ %34, %32 ]
  %53 = tail call double @sin(double noundef %10) #9, !tbaa !74
  %54 = fneg double %53
  %55 = fmul double %27, %54
  %56 = tail call double @llvm.fmuladd.f64(double %55, double %53, double 1.000000e+00)
  %57 = tail call double @sqrt(double noundef %56) #9, !tbaa !74
  %58 = fdiv double %16, %57
  br label %_ZL2RNddd.exit

_ZL2RNddd.exit:                                   ; preds = %cdce.call, %_ZL2RMddd.exit, %52
  %.0.i68 = phi double [ %.0.i.ph, %52 ], [ %16, %_ZL2RMddd.exit ], [ %16, %cdce.call ]
  %.0.i65 = phi double [ %58, %52 ], [ %16, %_ZL2RMddd.exit ], [ %16, %cdce.call ]
  %59 = fneg double %17
  %60 = fsub double 1.000000e+00, %14
  %61 = getelementptr inbounds nuw i8, ptr %1, i64 16
  %62 = load double, ptr %61, align 8, !tbaa !63
  %63 = fadd double %.0.i68, %62
  %64 = fcmp oeq double %63, 0.000000e+00
  br i1 %64, label %65, label %66

65:                                               ; preds = %_ZL2RNddd.exit
  store double 0x7FF0000000000000, ptr %1, align 8, !tbaa !60
  br label %105

66:                                               ; preds = %_ZL2RNddd.exit
  %67 = fadd double %.0.i65, %62
  %68 = fmul double %12, %67
  %69 = fcmp oeq double %68, 0.000000e+00
  br i1 %69, label %70, label %71

70:                                               ; preds = %66
  store double 0x7FF0000000000000, ptr %1, align 8, !tbaa !60
  br label %105

71:                                               ; preds = %66
  %72 = fmul double %11, %12
  %73 = fdiv double %.0.i68, %60
  %74 = tail call double @llvm.fmuladd.f64(double %.0.i65, double %60, double %73)
  %75 = fmul double %72, %74
  %76 = fmul double %11, %59
  %77 = fmul double %11, %19
  %78 = fneg double %7
  %79 = fmul double %77, %78
  %80 = tail call double @llvm.fmuladd.f64(double %76, double %8, double %79)
  %81 = tail call double @llvm.fmuladd.f64(double %21, double %12, double %80)
  %82 = fmul double %27, %.0.i65
  %83 = fmul double %11, %82
  %84 = fmul double %12, %83
  %85 = fmul double %23, %84
  %86 = fdiv double %85, %16
  %87 = fadd double %81, %86
  %88 = tail call double @llvm.fmuladd.f64(double %75, double %25, double %87)
  %89 = fdiv double %88, %63
  %90 = fmul double %8, %19
  %91 = tail call double @llvm.fmuladd.f64(double %59, double %7, double %90)
  %92 = fdiv double %91, %68
  %93 = fmul double %12, %17
  %94 = fmul double %12, %19
  %95 = fmul double %7, %94
  %96 = tail call double @llvm.fmuladd.f64(double %93, double %8, double %95)
  %97 = tail call double @llvm.fmuladd.f64(double %21, double %11, double %96)
  %98 = fneg double %16
  %99 = fdiv double %98, %.0.i65
  %100 = tail call double @llvm.fmuladd.f64(double %99, double %23, double %97)
  %101 = fmul double %60, %.0.i65
  %102 = fmul double %11, %101
  %103 = fmul double %11, %102
  %104 = tail call double @llvm.fmuladd.f64(double %103, double %25, double %100)
  store double %89, ptr %9, align 8, !tbaa !62
  store double %92, ptr %1, align 8, !tbaa !60
  store double %104, ptr %61, align 8, !tbaa !63
  br label %105

105:                                              ; preds = %70, %71, %65
  call void @llvm.memcpy.p0.p0.i64(ptr noundef nonnull align 8 dereferenceable(24) %0, ptr noundef nonnull align 8 dereferenceable(24) %1, i64 24, i1 false)
  ret void
}